; Function Attrs: mustprogress nounwind uwtable
define void @_ZNK5faiss17AdditiveQuantizer22compute_centroid_normsEPf(ptr noundef nonnull align 8 dereferenceable(308) %0, ptr noundef %1) local_unnamed_addr #3 align 2 {
  %3 = alloca ptr, align 8
  %4 = alloca i64, align 8
  store ptr %1, ptr %3, align 8
  %5 = getelementptr inbounds i8, ptr %0, i64 104
  %6 = load i64, ptr %5, align 8
  %7 = shl nuw i64 1, %6
  store i64 %7, ptr %4, align 8
  call void (ptr, i32, ptr, ...) @__kmpc_fork_call(ptr nonnull @2, i32 3, ptr nonnull @_ZNK5faiss17AdditiveQuantizer22compute_centroid_normsEPf.omp_outlined, ptr nonnull %0, ptr nonnull %4, ptr nonnull %3)
  ret void
}